target datalayout = "e-m:e-p270:32:32-p271:32:32-p272:64:64-i64:64-i128:128-f80:128-n8:16:32:64-S128"
target triple = "x86_64-pc-linux-gnu"

%struct.TupleTableSlotOps = type { i64, ptr, ptr, ptr, ptr, ptr, ptr, ptr, ptr, ptr, ptr, ptr, ptr }
%struct.TableFuncScanState = type { %struct.ScanState, ptr, ptr, ptr, ptr, ptr, ptr, ptr, ptr, ptr, ptr, ptr, ptr, ptr, i64, ptr, ptr }
%struct.ScanState = type { %struct.PlanState, ptr, ptr, ptr }
%struct.PlanState = type { i32, ptr, ptr, ptr, ptr, ptr, ptr, ptr, ptr, ptr, ptr, ptr, ptr, ptr, ptr, ptr, ptr, ptr, i8, ptr, ptr, ptr, ptr, ptr, i8, i8, i8, i8, i8, i8, i8, i8 }
%struct.TupleTableSlot = type { i32, i16, i16, ptr, ptr, ptr, ptr, ptr, %struct.ItemPointerData, i32 }
%struct.ItemPointerData = type { %struct.BlockIdData, i16 }
%struct.BlockIdData = type { i16, i16 }

; Function Attrs: inlinehint nounwind uwtable
define internal ptr @ExecClearTuple(ptr noundef %0) #2 {
  %2 = alloca ptr, align 8
  store ptr %0, ptr %2, align 8
  %3 = load ptr, ptr %2, align 8
  %4 = getelementptr inbounds nuw %struct.TupleTableSlot, ptr %3, i32 0, i32 3
  %5 = load ptr, ptr %4, align 8
  %6 = getelementptr inbounds nuw %struct.TupleTableSlotOps, ptr %5, i32 0, i32 3
  %7 = load ptr, ptr %6, align 8
  %8 = load ptr, ptr %2, align 8
  call void %7(ptr noundef %8)
  %9 = load ptr, ptr %2, align 8
  ret ptr %9
}

; Function Attrs: nounwind uwtable
define dso_local void @ExecReScanTableFuncScan(ptr noundef %0) #0 {
  %2 = alloca ptr, align 8
  %3 = alloca ptr, align 8
  store ptr %0, ptr %2, align 8
  call void @llvm.lifetime.start.p0(i64 8, ptr %3) #9
  %4 = load ptr, ptr %2, align 8
  %5 = getelementptr inbounds nuw %struct.TableFuncScanState, ptr %4, i32 0, i32 0
  %6 = getelementptr inbounds nuw %struct.ScanState, ptr %5, i32 0, i32 0
  %7 = getelementptr inbounds nuw %struct.PlanState, ptr %6, i32 0, i32 13
  %8 = load ptr, ptr %7, align 8
  store ptr %8, ptr %3, align 8
  %9 = load ptr, ptr %2, align 8
  %10 = getelementptr inbounds nuw %struct.TableFuncScanState, ptr %9, i32 0, i32 0
  %11 = getelementptr inbounds nuw %struct.ScanState, ptr %10, i32 0, i32 0
  %12 = getelementptr inbounds nuw %struct.PlanState, ptr %11, i32 0, i32 15
  %13 = load ptr, ptr %12, align 8
  %14 = icmp ne ptr %13, null
  br i1 %14, label %15, label %22

15:                                               ; preds = %1
  %16 = load ptr, ptr %2, align 8
  %17 = getelementptr inbounds nuw %struct.TableFuncScanState, ptr %16, i32 0, i32 0
  %18 = getelementptr inbounds nuw %struct.ScanState, ptr %17, i32 0, i32 0
  %19 = getelementptr inbounds nuw %struct.PlanState, ptr %18, i32 0, i32 15
  %20 = load ptr, ptr %19, align 8
  %21 = call ptr @ExecClearTuple(ptr noundef %20)
  br label %22

22:                                               ; preds = %15, %1
  %23 = load ptr, ptr %2, align 8
  %24 = getelementptr inbounds nuw %struct.TableFuncScanState, ptr %23, i32 0, i32 0
  call void @ExecScanReScan(ptr noundef %24)
  %25 = load ptr, ptr %3, align 8
  %26 = icmp ne ptr %25, null
  br i1 %26, label %27, label %39

27:                                               ; preds = %22
  %28 = load ptr, ptr %2, align 8
  %29 = getelementptr inbounds nuw %struct.TableFuncScanState, ptr %28, i32 0, i32 16
  %30 = load ptr, ptr %29, align 8
  %31 = icmp ne ptr %30, null
  br i1 %31, label %32, label %38

32:                                               ; preds = %27
  %33 = load ptr, ptr %2, align 8
  %34 = getelementptr inbounds nuw %struct.TableFuncScanState, ptr %33, i32 0, i32 16
  %35 = load ptr, ptr %34, align 8
  call void @tuplestore_end(ptr noundef %35)
  %36 = load ptr, ptr %2, align 8
  %37 = getelementptr inbounds nuw %struct.TableFuncScanState, ptr %36, i32 0, i32 16
  store ptr null, ptr %37, align 8
  br label %38

38:                                               ; preds = %32, %27
  br label %39

39:                                               ; preds = %38, %22
  %40 = load ptr, ptr %2, align 8
  %41 = getelementptr inbounds nuw %struct.TableFuncScanState, ptr %40, i32 0, i32 16
  %42 = load ptr, ptr %41, align 8
  %43 = icmp ne ptr %42, null
  br i1 %43, label %44, label %48

44:                                               ; preds = %39
  %45 = load ptr, ptr %2, align 8
  %46 = getelementptr inbounds nuw %struct.TableFuncScanState, ptr %45, i32 0, i32 16
  %47 = load ptr, ptr %46, align 8
  call void @tuplestore_rescan(ptr noundef %47)
  br label %48

48:                                               ; preds = %44, %39
  call void @llvm.lifetime.end.p0(i64 8, ptr %3) #9
  ret void
}