; Function Attrs: nounwind uwtable
define dso_local void @ExecReScanTableFuncScan(ptr noundef %0) local_unnamed_addr #0 {
  %2 = getelementptr inbounds nuw i8, ptr %0, i64 104
  %3 = load ptr, ptr %2, align 8
  %4 = getelementptr inbounds nuw i8, ptr %0, i64 120
  %5 = load ptr, ptr %4, align 8
  %.not = icmp eq ptr %5, null
  br i1 %.not, label %11, label %6

6:                                                ; preds = %1
  %7 = getelementptr inbounds nuw i8, ptr %5, i64 8
  %8 = load ptr, ptr %7, align 8
  %9 = getelementptr inbounds nuw i8, ptr %8, i64 24
  %10 = load ptr, ptr %9, align 8
  tail call void %10(ptr noundef nonnull %5) #8
  br label %11

11:                                               ; preds = %6, %1
  tail call void @ExecScanReScan(ptr noundef nonnull %0) #8
  %.not12 = icmp eq ptr %3, null
  %.phi.trans.insert = getelementptr inbounds nuw i8, ptr %0, i64 344
  %.pre = load ptr, ptr %.phi.trans.insert, align 8
  %.not14 = icmp eq ptr %.pre, null
  br i1 %.not12, label %14, label %12

12:                                               ; preds = %11
  br i1 %.not14, label %.thread, label %13

13:                                               ; preds = %12
  tail call void @tuplestore_end(ptr noundef nonnull %.pre) #8
  store ptr null, ptr %.phi.trans.insert, align 8
  br label %.thread

14:                                               ; preds = %11
  br i1 %.not14, label %.thread, label %15

15:                                               ; preds = %14
  tail call void @tuplestore_rescan(ptr noundef nonnull %.pre) #8
  br label %.thread

.thread:                                          ; preds = %13, %12, %15, %14
  ret void
}